target datalayout = "e-m:e-p270:32:32-p271:32:32-p272:64:64-i64:64-i128:128-f80:128-n8:16:32:64-S128"
target triple = "x86_64-pc-linux-gnu"

%struct.SizeClassConfig = type { [40 x i32], [1025 x i8], i32 }
%struct.lua_State = type { i8, i8, i8, i8, i8, i8, i8, ptr, ptr, ptr, ptr, ptr, ptr, ptr, ptr, i32, i32, i16, i16, i32, ptr, ptr, ptr, ptr, ptr }
%struct.global_State = type { %struct.stringtable, ptr, ptr, i8, i8, ptr, ptr, ptr, i64, i64, i32, i32, i32, [40 x ptr], [40 x ptr], ptr, ptr, ptr, [256 x i64], ptr, %struct.UpVal, [11 x ptr], [11 x ptr], [21 x ptr], %struct.lua_TValue, %struct.lua_TValue, i32, ptr, i64, [4 x i64], %struct.lua_Callbacks, %struct.lua_ExecutionCallbacks, [128 x ptr], [128 x ptr], [128 x ptr], %struct.GCStats }
%struct.stringtable = type { ptr, i32, i32 }
%struct.UpVal = type { i8, i8, i8, i8, ptr, %union.anon }
%union.anon = type { %struct.anon }
%struct.anon = type { ptr, ptr, ptr }
%struct.lua_TValue = type { %union.Value, [1 x i32], i32 }
%union.Value = type { ptr }
%struct.lua_Callbacks = type { ptr, ptr, ptr, ptr, ptr, ptr, ptr, ptr, ptr, ptr }
%struct.lua_ExecutionCallbacks = type { ptr, ptr, ptr, ptr, ptr, ptr, ptr }
%struct.GCStats = type { [32 x i32], i32, i32, i64, i64, i64, double, double, double }
%struct.lua_Page = type { ptr, ptr, ptr, ptr, i32, i32, ptr, i32, i32, %union.anon.0 }
%union.anon.0 = type { double }

@_ZL16kSizeClassConfig = internal global %struct.SizeClassConfig zeroinitializer, align 4

; Function Attrs: mustprogress uwtable
define internal noundef ptr @_ZL7newpageP9lua_StatePP8lua_Pageiii(ptr noundef %0, ptr noundef %1, i32 noundef %2, i32 noundef %3, i32 noundef %4) #5 {
  %6 = alloca ptr, align 8
  %7 = alloca ptr, align 8
  %8 = alloca i32, align 4
  %9 = alloca i32, align 4
  %10 = alloca i32, align 4
  %11 = alloca ptr, align 8
  %12 = alloca ptr, align 8
  store ptr %0, ptr %6, align 8, !tbaa !21
  store ptr %1, ptr %7, align 8, !tbaa !62
  store i32 %2, ptr %8, align 4, !tbaa !12
  store i32 %3, ptr %9, align 4, !tbaa !12
  store i32 %4, ptr %10, align 4, !tbaa !12
  call void @llvm.lifetime.start.p0(i64 8, ptr %11) #10
  %13 = load ptr, ptr %6, align 8, !tbaa !21
  %14 = getelementptr inbounds nuw %struct.lua_State, ptr %13, i32 0, i32 9
  %15 = load ptr, ptr %14, align 8, !tbaa !25
  store ptr %15, ptr %11, align 8, !tbaa !36
  call void @llvm.lifetime.start.p0(i64 8, ptr %12) #10
  %16 = load ptr, ptr %11, align 8, !tbaa !36
  %17 = getelementptr inbounds nuw %struct.global_State, ptr %16, i32 0, i32 1
  %18 = load ptr, ptr %17, align 8, !tbaa !37
  %19 = load ptr, ptr %11, align 8, !tbaa !36
  %20 = getelementptr inbounds nuw %struct.global_State, ptr %19, i32 0, i32 2
  %21 = load ptr, ptr %20, align 8, !tbaa !50
  %22 = load i32, ptr %8, align 4, !tbaa !12
  %23 = sext i32 %22 to i64
  %24 = call noundef ptr %18(ptr noundef %21, ptr noundef null, i64 noundef 0, i64 noundef %23)
  store ptr %24, ptr %12, align 8, !tbaa !54
  %25 = load ptr, ptr %12, align 8, !tbaa !54
  %26 = icmp ne ptr %25, null
  br i1 %26, label %29, label %27

27:                                               ; preds = %5
  %28 = load ptr, ptr %6, align 8, !tbaa !21
  call void @_Z10luaD_throwP9lua_Statei(ptr noundef %28, i32 noundef 4) #11
  unreachable

29:                                               ; preds = %5
  %30 = load ptr, ptr %12, align 8, !tbaa !54
  %31 = getelementptr inbounds nuw %struct.lua_Page, ptr %30, i32 0, i32 0
  store ptr null, ptr %31, align 8, !tbaa !61
  %32 = load ptr, ptr %12, align 8, !tbaa !54
  %33 = getelementptr inbounds nuw %struct.lua_Page, ptr %32, i32 0, i32 1
  store ptr null, ptr %33, align 8, !tbaa !60
  %34 = load ptr, ptr %12, align 8, !tbaa !54
  %35 = getelementptr inbounds nuw %struct.lua_Page, ptr %34, i32 0, i32 2
  store ptr null, ptr %35, align 8, !tbaa !64
  %36 = load ptr, ptr %12, align 8, !tbaa !54
  %37 = getelementptr inbounds nuw %struct.lua_Page, ptr %36, i32 0, i32 3
  store ptr null, ptr %37, align 8, !tbaa !65
  %38 = load i32, ptr %8, align 4, !tbaa !12
  %39 = load ptr, ptr %12, align 8, !tbaa !54
  %40 = getelementptr inbounds nuw %struct.lua_Page, ptr %39, i32 0, i32 4
  store i32 %38, ptr %40, align 8, !tbaa !66
  %41 = load i32, ptr %9, align 4, !tbaa !12
  %42 = load ptr, ptr %12, align 8, !tbaa !54
  %43 = getelementptr inbounds nuw %struct.lua_Page, ptr %42, i32 0, i32 5
  store i32 %41, ptr %43, align 4, !tbaa !57
  %44 = load ptr, ptr %12, align 8, !tbaa !54
  %45 = getelementptr inbounds nuw %struct.lua_Page, ptr %44, i32 0, i32 6
  store ptr null, ptr %45, align 8, !tbaa !59
  %46 = load i32, ptr %10, align 4, !tbaa !12
  %47 = sub nsw i32 %46, 1
  %48 = load i32, ptr %9, align 4, !tbaa !12
  %49 = mul nsw i32 %47, %48
  %50 = load ptr, ptr %12, align 8, !tbaa !54
  %51 = getelementptr inbounds nuw %struct.lua_Page, ptr %50, i32 0, i32 7
  store i32 %49, ptr %51, align 8, !tbaa !55
  %52 = load ptr, ptr %12, align 8, !tbaa !54
  %53 = getelementptr inbounds nuw %struct.lua_Page, ptr %52, i32 0, i32 8
  store i32 0, ptr %53, align 4, !tbaa !58
  %54 = load ptr, ptr %7, align 8, !tbaa !62
  %55 = icmp ne ptr %54, null
  br i1 %55, label %56, label %74

56:                                               ; preds = %29
  %57 = load ptr, ptr %7, align 8, !tbaa !62
  %58 = load ptr, ptr %57, align 8, !tbaa !54
  %59 = load ptr, ptr %12, align 8, !tbaa !54
  %60 = getelementptr inbounds nuw %struct.lua_Page, ptr %59, i32 0, i32 3
  store ptr %58, ptr %60, align 8, !tbaa !65
  %61 = load ptr, ptr %12, align 8, !tbaa !54
  %62 = getelementptr inbounds nuw %struct.lua_Page, ptr %61, i32 0, i32 3
  %63 = load ptr, ptr %62, align 8, !tbaa !65
  %64 = icmp ne ptr %63, null
  br i1 %64, label %65, label %71

65:                                               ; preds = %56
  %66 = load ptr, ptr %12, align 8, !tbaa !54
  %67 = load ptr, ptr %12, align 8, !tbaa !54
  %68 = getelementptr inbounds nuw %struct.lua_Page, ptr %67, i32 0, i32 3
  %69 = load ptr, ptr %68, align 8, !tbaa !65
  %70 = getelementptr inbounds nuw %struct.lua_Page, ptr %69, i32 0, i32 2
  store ptr %66, ptr %70, align 8, !tbaa !64
  br label %71

71:                                               ; preds = %65, %56
  %72 = load ptr, ptr %12, align 8, !tbaa !54
  %73 = load ptr, ptr %7, align 8, !tbaa !62
  store ptr %72, ptr %73, align 8, !tbaa !54
  br label %74

74:                                               ; preds = %71, %29
  %75 = load ptr, ptr %12, align 8, !tbaa !54
  call void @llvm.lifetime.end.p0(i64 8, ptr %12) #10
  call void @llvm.lifetime.end.p0(i64 8, ptr %11) #10
  ret ptr %75
}

; Function Attrs: mustprogress uwtable
define internal noundef ptr @_ZL11newgcoblockP9lua_Statei(ptr noundef %0, i32 noundef %1) #5 {
  %3 = alloca ptr, align 8
  %4 = alloca i32, align 4
  %5 = alloca ptr, align 8
  %6 = alloca ptr, align 8
  %7 = alloca ptr, align 8
  store ptr %0, ptr %3, align 8, !tbaa !21
  store i32 %1, ptr %4, align 4, !tbaa !12
  call void @llvm.lifetime.start.p0(i64 8, ptr %5) #10
  %8 = load ptr, ptr %3, align 8, !tbaa !21
  %9 = getelementptr inbounds nuw %struct.lua_State, ptr %8, i32 0, i32 9
  %10 = load ptr, ptr %9, align 8, !tbaa !25
  store ptr %10, ptr %5, align 8, !tbaa !36
  call void @llvm.lifetime.start.p0(i64 8, ptr %6) #10
  %11 = load ptr, ptr %5, align 8, !tbaa !36
  %12 = getelementptr inbounds nuw %struct.global_State, ptr %11, i32 0, i32 14
  %13 = load i32, ptr %4, align 4, !tbaa !12
  %14 = sext i32 %13 to i64
  %15 = getelementptr inbounds [40 x ptr], ptr %12, i64 0, i64 %14
  %16 = load ptr, ptr %15, align 8, !tbaa !54
  store ptr %16, ptr %6, align 8, !tbaa !54
  %17 = load ptr, ptr %6, align 8, !tbaa !54
  %18 = icmp ne ptr %17, null
  br i1 %18, label %29, label %19

19:                                               ; preds = %2
  %20 = load ptr, ptr %3, align 8, !tbaa !21
  %21 = load ptr, ptr %5, align 8, !tbaa !36
  %22 = getelementptr inbounds nuw %struct.global_State, ptr %21, i32 0, i32 14
  %23 = getelementptr inbounds [40 x ptr], ptr %22, i64 0, i64 0
  %24 = load ptr, ptr %5, align 8, !tbaa !36
  %25 = getelementptr inbounds nuw %struct.global_State, ptr %24, i32 0, i32 16
  %26 = load i32, ptr %4, align 4, !tbaa !12
  %27 = trunc i32 %26 to i8
  %28 = call noundef ptr @_ZL12newclasspageP9lua_StatePP8lua_PageS3_hb(ptr noundef %20, ptr noundef %23, ptr noundef %25, i8 noundef zeroext %27, i1 noundef zeroext false)
  store ptr %28, ptr %6, align 8, !tbaa !54
  br label %29

29:                                               ; preds = %19, %2
  call void @llvm.lifetime.start.p0(i64 8, ptr %7) #10
  %30 = load ptr, ptr %6, align 8, !tbaa !54
  %31 = getelementptr inbounds nuw %struct.lua_Page, ptr %30, i32 0, i32 7
  %32 = load i32, ptr %31, align 8, !tbaa !55
  %33 = icmp sge i32 %32, 0
  br i1 %33, label %34, label %53

34:                                               ; preds = %29
  %35 = load ptr, ptr %6, align 8, !tbaa !54
  %36 = getelementptr inbounds nuw %struct.lua_Page, ptr %35, i32 0, i32 9
  %37 = load ptr, ptr %6, align 8, !tbaa !54
  %38 = getelementptr inbounds nuw %struct.lua_Page, ptr %37, i32 0, i32 7
  %39 = load i32, ptr %38, align 8, !tbaa !55
  %40 = sext i32 %39 to i64
  %41 = getelementptr inbounds [1 x i8], ptr %36, i64 %40
  store ptr %41, ptr %7, align 8, !tbaa !51
  %42 = load ptr, ptr %6, align 8, !tbaa !54
  %43 = getelementptr inbounds nuw %struct.lua_Page, ptr %42, i32 0, i32 5
  %44 = load i32, ptr %43, align 4, !tbaa !57
  %45 = load ptr, ptr %6, align 8, !tbaa !54
  %46 = getelementptr inbounds nuw %struct.lua_Page, ptr %45, i32 0, i32 7
  %47 = load i32, ptr %46, align 8, !tbaa !55
  %48 = sub nsw i32 %47, %44
  store i32 %48, ptr %46, align 8, !tbaa !55
  %49 = load ptr, ptr %6, align 8, !tbaa !54
  %50 = getelementptr inbounds nuw %struct.lua_Page, ptr %49, i32 0, i32 8
  %51 = load i32, ptr %50, align 4, !tbaa !58
  %52 = add nsw i32 %51, 1
  store i32 %52, ptr %50, align 4, !tbaa !58
  br label %66

53:                                               ; preds = %29
  %54 = load ptr, ptr %6, align 8, !tbaa !54
  %55 = getelementptr inbounds nuw %struct.lua_Page, ptr %54, i32 0, i32 6
  %56 = load ptr, ptr %55, align 8, !tbaa !59
  store ptr %56, ptr %7, align 8, !tbaa !51
  %57 = load ptr, ptr %7, align 8, !tbaa !51
  %58 = getelementptr inbounds nuw i8, ptr %57, i64 8
  %59 = load ptr, ptr %58, align 8, !tbaa !51
  %60 = load ptr, ptr %6, align 8, !tbaa !54
  %61 = getelementptr inbounds nuw %struct.lua_Page, ptr %60, i32 0, i32 6
  store ptr %59, ptr %61, align 8, !tbaa !59
  %62 = load ptr, ptr %6, align 8, !tbaa !54
  %63 = getelementptr inbounds nuw %struct.lua_Page, ptr %62, i32 0, i32 8
  %64 = load i32, ptr %63, align 4, !tbaa !58
  %65 = add nsw i32 %64, 1
  store i32 %65, ptr %63, align 4, !tbaa !58
  br label %66

66:                                               ; preds = %53, %34
  %67 = load ptr, ptr %6, align 8, !tbaa !54
  %68 = getelementptr inbounds nuw %struct.lua_Page, ptr %67, i32 0, i32 6
  %69 = load ptr, ptr %68, align 8, !tbaa !59
  %70 = icmp ne ptr %69, null
  br i1 %70, label %97, label %71

71:                                               ; preds = %66
  %72 = load ptr, ptr %6, align 8, !tbaa !54
  %73 = getelementptr inbounds nuw %struct.lua_Page, ptr %72, i32 0, i32 7
  %74 = load i32, ptr %73, align 8, !tbaa !55
  %75 = icmp slt i32 %74, 0
  br i1 %75, label %76, label %97

76:                                               ; preds = %71
  %77 = load ptr, ptr %6, align 8, !tbaa !54
  %78 = getelementptr inbounds nuw %struct.lua_Page, ptr %77, i32 0, i32 1
  %79 = load ptr, ptr %78, align 8, !tbaa !60
  %80 = load ptr, ptr %5, align 8, !tbaa !36
  %81 = getelementptr inbounds nuw %struct.global_State, ptr %80, i32 0, i32 14
  %82 = load i32, ptr %4, align 4, !tbaa !12
  %83 = sext i32 %82 to i64
  %84 = getelementptr inbounds [40 x ptr], ptr %81, i64 0, i64 %83
  store ptr %79, ptr %84, align 8, !tbaa !54
  %85 = load ptr, ptr %6, align 8, !tbaa !54
  %86 = getelementptr inbounds nuw %struct.lua_Page, ptr %85, i32 0, i32 1
  %87 = load ptr, ptr %86, align 8, !tbaa !60
  %88 = icmp ne ptr %87, null
  br i1 %88, label %89, label %94

89:                                               ; preds = %76
  %90 = load ptr, ptr %6, align 8, !tbaa !54
  %91 = getelementptr inbounds nuw %struct.lua_Page, ptr %90, i32 0, i32 1
  %92 = load ptr, ptr %91, align 8, !tbaa !60
  %93 = getelementptr inbounds nuw %struct.lua_Page, ptr %92, i32 0, i32 0
  store ptr null, ptr %93, align 8, !tbaa !61
  br label %94

94:                                               ; preds = %89, %76
  %95 = load ptr, ptr %6, align 8, !tbaa !54
  %96 = getelementptr inbounds nuw %struct.lua_Page, ptr %95, i32 0, i32 1
  store ptr null, ptr %96, align 8, !tbaa !60
  br label %97

97:                                               ; preds = %94, %71, %66
  %98 = load ptr, ptr %7, align 8, !tbaa !51
  call void @llvm.lifetime.end.p0(i64 8, ptr %7) #10
  call void @llvm.lifetime.end.p0(i64 8, ptr %6) #10
  call void @llvm.lifetime.end.p0(i64 8, ptr %5) #10
  ret ptr %98
}

; Function Attrs: mustprogress uwtable
define hidden noundef ptr @_Z12luaM_newgco_P9lua_Statemh(ptr noundef %0, i64 noundef %1, i8 noundef zeroext %2) #5 {
  %4 = alloca ptr, align 8
  %5 = alloca i64, align 8
  %6 = alloca i8, align 1
  %7 = alloca ptr, align 8
  %8 = alloca i32, align 4
  %9 = alloca ptr, align 8
  %10 = alloca ptr, align 8
  store ptr %0, ptr %4, align 8, !tbaa !21
  store i64 %1, ptr %5, align 8, !tbaa !23
  store i8 %2, ptr %6, align 1, !tbaa !18
  call void @llvm.lifetime.start.p0(i64 8, ptr %7) #10
  %11 = load ptr, ptr %4, align 8, !tbaa !21
  %12 = getelementptr inbounds nuw %struct.lua_State, ptr %11, i32 0, i32 9
  %13 = load ptr, ptr %12, align 8, !tbaa !25
  store ptr %13, ptr %7, align 8, !tbaa !36
  call void @llvm.lifetime.start.p0(i64 4, ptr %8) #10
  %14 = load i64, ptr %5, align 8, !tbaa !23
  %15 = sub i64 %14, 1
  %16 = icmp ult i64 %15, 1024
  br i1 %16, label %17, label %22

17:                                               ; preds = %3
  %18 = load i64, ptr %5, align 8, !tbaa !23
  %19 = getelementptr inbounds nuw [1025 x i8], ptr getelementptr inbounds nuw (%struct.SizeClassConfig, ptr @_ZL16kSizeClassConfig, i32 0, i32 1), i64 0, i64 %18
  %20 = load i8, ptr %19, align 1, !tbaa !18
  %21 = sext i8 %20 to i32
  br label %23

22:                                               ; preds = %3
  br label %23

23:                                               ; preds = %22, %17
  %24 = phi i32 [ %21, %17 ], [ -1, %22 ]
  store i32 %24, ptr %8, align 4, !tbaa !12
  call void @llvm.lifetime.start.p0(i64 8, ptr %9) #10
  store ptr null, ptr %9, align 8, !tbaa !51
  %25 = load i32, ptr %8, align 4, !tbaa !12
  %26 = icmp sge i32 %25, 0
  br i1 %26, label %27, label %31

27:                                               ; preds = %23
  %28 = load ptr, ptr %4, align 8, !tbaa !21
  %29 = load i32, ptr %8, align 4, !tbaa !12
  %30 = call noundef ptr @_ZL11newgcoblockP9lua_Statei(ptr noundef %28, i32 noundef %29)
  store ptr %30, ptr %9, align 8, !tbaa !51
  br label %56

31:                                               ; preds = %23
  call void @llvm.lifetime.start.p0(i64 8, ptr %10) #10
  %32 = load ptr, ptr %4, align 8, !tbaa !21
  %33 = load ptr, ptr %7, align 8, !tbaa !36
  %34 = getelementptr inbounds nuw %struct.global_State, ptr %33, i32 0, i32 16
  %35 = load i64, ptr %5, align 8, !tbaa !23
  %36 = trunc i64 %35 to i32
  %37 = sext i32 %36 to i64
  %38 = add i64 56, %37
  %39 = trunc i64 %38 to i32
  %40 = load i64, ptr %5, align 8, !tbaa !23
  %41 = trunc i64 %40 to i32
  %42 = call noundef ptr @_ZL7newpageP9lua_StatePP8lua_Pageiii(ptr noundef %32, ptr noundef %34, i32 noundef %39, i32 noundef %41, i32 noundef 1)
  store ptr %42, ptr %10, align 8, !tbaa !54
  %43 = load ptr, ptr %10, align 8, !tbaa !54
  %44 = getelementptr inbounds nuw %struct.lua_Page, ptr %43, i32 0, i32 9
  store ptr %44, ptr %9, align 8, !tbaa !51
  %45 = load ptr, ptr %10, align 8, !tbaa !54
  %46 = getelementptr inbounds nuw %struct.lua_Page, ptr %45, i32 0, i32 5
  %47 = load i32, ptr %46, align 4, !tbaa !57
  %48 = load ptr, ptr %10, align 8, !tbaa !54
  %49 = getelementptr inbounds nuw %struct.lua_Page, ptr %48, i32 0, i32 7
  %50 = load i32, ptr %49, align 8, !tbaa !55
  %51 = sub nsw i32 %50, %47
  store i32 %51, ptr %49, align 8, !tbaa !55
  %52 = load ptr, ptr %10, align 8, !tbaa !54
  %53 = getelementptr inbounds nuw %struct.lua_Page, ptr %52, i32 0, i32 8
  %54 = load i32, ptr %53, align 4, !tbaa !58
  %55 = add nsw i32 %54, 1
  store i32 %55, ptr %53, align 4, !tbaa !58
  call void @llvm.lifetime.end.p0(i64 8, ptr %10) #10
  br label %56

56:                                               ; preds = %31, %27
  %57 = load ptr, ptr %9, align 8, !tbaa !51
  %58 = icmp eq ptr %57, null
  br i1 %58, label %59, label %64

59:                                               ; preds = %56
  %60 = load i64, ptr %5, align 8, !tbaa !23
  %61 = icmp ugt i64 %60, 0
  br i1 %61, label %62, label %64

62:                                               ; preds = %59
  %63 = load ptr, ptr %4, align 8, !tbaa !21
  call void @_Z10luaD_throwP9lua_Statei(ptr noundef %63, i32 noundef 4) #11
  unreachable

64:                                               ; preds = %59, %56
  %65 = load i64, ptr %5, align 8, !tbaa !23
  %66 = load ptr, ptr %7, align 8, !tbaa !36
  %67 = getelementptr inbounds nuw %struct.global_State, ptr %66, i32 0, i32 9
  %68 = load i64, ptr %67, align 8, !tbaa !52
  %69 = add i64 %68, %65
  store i64 %69, ptr %67, align 8, !tbaa !52
  %70 = load i64, ptr %5, align 8, !tbaa !23
  %71 = load ptr, ptr %7, align 8, !tbaa !36
  %72 = getelementptr inbounds nuw %struct.global_State, ptr %71, i32 0, i32 18
  %73 = load i8, ptr %6, align 1, !tbaa !18
  %74 = zext i8 %73 to i64
  %75 = getelementptr inbounds nuw [256 x i64], ptr %72, i64 0, i64 %74
  %76 = load i64, ptr %75, align 8, !tbaa !23
  %77 = add i64 %76, %70
  store i64 %77, ptr %75, align 8, !tbaa !23
  %78 = load ptr, ptr %7, align 8, !tbaa !36
  %79 = getelementptr inbounds nuw %struct.global_State, ptr %78, i32 0, i32 30
  %80 = getelementptr inbounds nuw %struct.lua_Callbacks, ptr %79, i32 0, i32 9
  %81 = load ptr, ptr %80, align 8, !tbaa !53
  %82 = icmp ne ptr %81, null
  %83 = xor i1 %82, true
  %84 = xor i1 %83, true
  %85 = zext i1 %84 to i64
  %86 = call i64 @llvm.expect.i64(i64 %85, i64 0)
  %87 = icmp ne i64 %86, 0
  br i1 %87, label %88, label %95

88:                                               ; preds = %64
  %89 = load ptr, ptr %7, align 8, !tbaa !36
  %90 = getelementptr inbounds nuw %struct.global_State, ptr %89, i32 0, i32 30
  %91 = getelementptr inbounds nuw %struct.lua_Callbacks, ptr %90, i32 0, i32 9
  %92 = load ptr, ptr %91, align 8, !tbaa !53
  %93 = load ptr, ptr %4, align 8, !tbaa !21
  %94 = load i64, ptr %5, align 8, !tbaa !23
  call void %92(ptr noundef %93, i64 noundef 0, i64 noundef %94)
  br label %95

95:                                               ; preds = %88, %64
  %96 = load ptr, ptr %9, align 8, !tbaa !51
  call void @llvm.lifetime.end.p0(i64 8, ptr %9) #10
  call void @llvm.lifetime.end.p0(i64 4, ptr %8) #10
  call void @llvm.lifetime.end.p0(i64 8, ptr %7) #10
  ret ptr %96
}