; Function Attrs: mustprogress uwtable
define hidden noundef ptr @_Z12luaM_newgco_P9lua_Statemh(ptr noundef %0, i64 noundef %1, i8 noundef zeroext %2) local_unnamed_addr #3 {
  %4 = getelementptr inbounds nuw i8, ptr %0, i64 24
  %5 = load ptr, ptr %4, align 8, !tbaa !4
  %6 = add i64 %1, -1
  %7 = icmp ult i64 %6, 1024
  br i1 %7, label %8, label %.thread

8:                                                ; preds = %3
  %9 = getelementptr inbounds nuw [1025 x i8], ptr getelementptr inbounds nuw (i8, ptr @_ZL16kSizeClassConfig, i64 160), i64 0, i64 %1
  %10 = load i8, ptr %9, align 1, !tbaa !19
  %11 = icmp sgt i8 %10, -1
  br i1 %11, label %12, label %.thread

12:                                               ; preds = %8
  %13 = getelementptr inbounds nuw i8, ptr %5, i64 416
  %14 = zext nneg i8 %10 to i64
  %15 = getelementptr inbounds nuw [40 x ptr], ptr %13, i64 0, i64 %14
  %16 = load ptr, ptr %15, align 8, !tbaa !20
  %.not.i = icmp eq ptr %16, null
  br i1 %.not.i, label %17, label %20

17:                                               ; preds = %12
  %18 = getelementptr inbounds nuw i8, ptr %5, i64 744
  %19 = tail call fastcc noundef ptr @_ZL12newclasspageP9lua_StatePP8lua_PageS3_hb(ptr noundef nonnull %0, ptr noundef nonnull %13, ptr noundef nonnull %18, i8 noundef zeroext %10, i1 noundef zeroext false)
  br label %20

20:                                               ; preds = %17, %12
  %.026.i = phi ptr [ %16, %12 ], [ %19, %17 ]
  %21 = getelementptr inbounds nuw i8, ptr %.026.i, i64 48
  %22 = load i32, ptr %21, align 8, !tbaa !22
  %23 = icmp sgt i32 %22, -1
  br i1 %23, label %24, label %.thread.i

24:                                               ; preds = %20
  %25 = getelementptr inbounds nuw i8, ptr %.026.i, i64 56
  %26 = zext nneg i32 %22 to i64
  %27 = getelementptr inbounds nuw [1 x i8], ptr %25, i64 %26
  %28 = getelementptr inbounds nuw i8, ptr %.026.i, i64 36
  %29 = load i32, ptr %28, align 4, !tbaa !24
  %30 = sub nsw i32 %22, %29
  store i32 %30, ptr %21, align 8, !tbaa !22
  %31 = getelementptr inbounds nuw i8, ptr %.026.i, i64 52
  %32 = load i32, ptr %31, align 4, !tbaa !25
  %33 = add nsw i32 %32, 1
  store i32 %33, ptr %31, align 4, !tbaa !25
  %.phi.trans.insert.i = getelementptr inbounds nuw i8, ptr %.026.i, i64 40
  %.pre.i = load ptr, ptr %.phi.trans.insert.i, align 8, !tbaa !27
  %34 = icmp sgt i32 %30, -1
  %.not30.i = icmp ne ptr %.pre.i, null
  %brmerge.i = select i1 %.not30.i, i1 true, i1 %34
  br i1 %brmerge.i, label %68, label %.thread36.i

.thread.i:                                        ; preds = %20
  %35 = getelementptr inbounds nuw i8, ptr %.026.i, i64 40
  %36 = load ptr, ptr %35, align 8, !tbaa !27
  %37 = getelementptr inbounds nuw i8, ptr %36, i64 8
  %38 = load ptr, ptr %37, align 8, !tbaa !26
  store ptr %38, ptr %35, align 8, !tbaa !27
  %39 = getelementptr inbounds nuw i8, ptr %.026.i, i64 52
  %40 = load i32, ptr %39, align 4, !tbaa !25
  %41 = add nsw i32 %40, 1
  store i32 %41, ptr %39, align 4, !tbaa !25
  %.not3033.i = icmp eq ptr %38, null
  br i1 %.not3033.i, label %.thread36.i, label %68

.thread36.i:                                      ; preds = %.thread.i, %24
  %.03538.i = phi ptr [ %36, %.thread.i ], [ %27, %24 ]
  %42 = getelementptr inbounds nuw i8, ptr %.026.i, i64 8
  %43 = load ptr, ptr %42, align 8, !tbaa !28
  store ptr %43, ptr %15, align 8, !tbaa !20
  %.not31.i = icmp eq ptr %43, null
  br i1 %.not31.i, label %45, label %44

44:                                               ; preds = %.thread36.i
  store ptr null, ptr %43, align 8, !tbaa !29
  br label %45

45:                                               ; preds = %44, %.thread36.i
  store ptr null, ptr %42, align 8, !tbaa !28
  br label %68

.thread:                                          ; preds = %3, %8
  %46 = getelementptr inbounds nuw i8, ptr %5, i64 744
  %47 = trunc i64 %1 to i32
  %48 = add i32 %47, 56
  %49 = getelementptr inbounds nuw i8, ptr %5, i64 16
  %50 = load ptr, ptr %49, align 8, !tbaa !30
  %51 = getelementptr inbounds nuw i8, ptr %5, i64 24
  %52 = load ptr, ptr %51, align 8, !tbaa !44
  %53 = sext i32 %48 to i64
  %54 = tail call noundef ptr %50(ptr noundef %52, ptr noundef null, i64 noundef 0, i64 noundef %53)
  %.not.i29 = icmp eq ptr %54, null
  br i1 %.not.i29, label %55, label %56

55:                                               ; preds = %.thread
  tail call void @_Z10luaD_throwP9lua_Statei(ptr noundef nonnull %0, i32 noundef 4) #11
  unreachable

56:                                               ; preds = %.thread
  %57 = getelementptr inbounds nuw i8, ptr %54, i64 32
  tail call void @llvm.memset.p0.i64(ptr noundef nonnull align 8 dereferenceable(32) %54, i8 0, i64 32, i1 false)
  store i32 %48, ptr %57, align 8, !tbaa !49
  %58 = getelementptr inbounds nuw i8, ptr %54, i64 36
  store i32 %47, ptr %58, align 4, !tbaa !24
  %59 = getelementptr inbounds nuw i8, ptr %54, i64 40
  %60 = getelementptr inbounds nuw i8, ptr %54, i64 48
  %61 = getelementptr inbounds nuw i8, ptr %54, i64 52
  %62 = getelementptr inbounds nuw i8, ptr %54, i64 24
  tail call void @llvm.memset.p0.i64(ptr noundef nonnull align 8 dereferenceable(16) %59, i8 0, i64 16, i1 false)
  %63 = load ptr, ptr %46, align 8, !tbaa !20
  store ptr %63, ptr %62, align 8, !tbaa !50
  %.not30.i30 = icmp eq ptr %63, null
  br i1 %.not30.i30, label %_ZL7newpageP9lua_StatePP8lua_Pageiii.exit, label %64

64:                                               ; preds = %56
  %65 = getelementptr inbounds nuw i8, ptr %63, i64 16
  store ptr %54, ptr %65, align 8, !tbaa !51
  br label %_ZL7newpageP9lua_StatePP8lua_Pageiii.exit

_ZL7newpageP9lua_StatePP8lua_Pageiii.exit:        ; preds = %56, %64
  store ptr %54, ptr %46, align 8, !tbaa !20
  %66 = getelementptr inbounds nuw i8, ptr %54, i64 56
  %67 = sub nsw i32 0, %47
  store i32 %67, ptr %60, align 8, !tbaa !22
  store i32 1, ptr %61, align 4, !tbaa !25
  br label %68

68:                                               ; preds = %_ZL7newpageP9lua_StatePP8lua_Pageiii.exit, %24, %.thread.i, %45
  %.0 = phi ptr [ %66, %_ZL7newpageP9lua_StatePP8lua_Pageiii.exit ], [ %36, %.thread.i ], [ %.03538.i, %45 ], [ %27, %24 ]
  %69 = getelementptr inbounds nuw i8, ptr %5, i64 72
  %70 = load i64, ptr %69, align 8, !tbaa !45
  %71 = add i64 %70, %1
  store i64 %71, ptr %69, align 8, !tbaa !45
  %72 = getelementptr inbounds nuw i8, ptr %5, i64 760
  %73 = zext i8 %2 to i64
  %74 = getelementptr inbounds nuw [256 x i64], ptr %72, i64 0, i64 %73
  %75 = load i64, ptr %74, align 8, !tbaa !46
  %76 = add i64 %75, %1
  store i64 %76, ptr %74, align 8, !tbaa !46
  %77 = getelementptr inbounds nuw i8, ptr %5, i64 3360
  %78 = load ptr, ptr %77, align 8, !tbaa !47
  %.not = icmp eq ptr %78, null
  br i1 %.not, label %80, label %79, !prof !48

79:                                               ; preds = %68
  tail call void %78(ptr noundef nonnull %0, i64 noundef 0, i64 noundef %1)
  br label %80

80:                                               ; preds = %79, %68
  ret ptr %.0
}